	.file	"function_nature.c"
	.section	.rodata
.LC0:
	.string	"hello world!"
	.text
	.globl	print_hello
	.type	print_hello, @function
print_hello:
.LFB0:
	.cfi_startproc
	pushl	%ebp
	.cfi_def_cfa_offset 8
	.cfi_offset 5, -8
	movl	%esp, %ebp
	.cfi_def_cfa_register 5
	subl	$24, %esp
	movl	$.LC0, (%esp)
	call	puts
	leave
	.cfi_restore 5
	.cfi_def_cfa 4, 4
	ret
	.cfi_endproc
.LFE0:
	.size	print_hello, .-print_hello
	.section	.rodata
.LC1:
	.string	"hello"
	.text
	.globl	func
	.type	func, @function
func:
.LFB1:
	.cfi_startproc
	pushl	%ebp
	.cfi_def_cfa_offset 8
	.cfi_offset 5, -8
	movl	%esp, %ebp
	.cfi_def_cfa_register 5
	subl	$24, %esp
	movl	$.LC1, (%esp)
	call	puts
	leave
	.cfi_restore 5
	.cfi_def_cfa 4, 4
	ret
	.cfi_endproc
.LFE1:
	.size	func, .-func
	.section	.rodata
.LC2:
	.string	"%p\n"
	.text
	.globl	main
	.type	main, @function
main:
.LFB2:
	.cfi_startproc
	pushl	%ebp
	.cfi_def_cfa_offset 8
	.cfi_offset 5, -8
	movl	%esp, %ebp
	.cfi_def_cfa_register 5
	andl	$-16, %esp
	subl	$32, %esp
	call	print_hello
	movl	$func, 28(%esp)
	movl	28(%esp), %eax
	movl	%eax, 4(%esp)
	movl	$.LC2, (%esp)
	call	printf
	movl	28(%esp), %eax
	call	*%eax
	movl	28(%esp), %eax
	call	*%eax
	movl	$0, %eax
	leave
	.cfi_restore 5
	.cfi_def_cfa 4, 4
	ret
	.cfi_endproc
.LFE2:
	.size	main, .-main
	.ident	"GCC: (Ubuntu 4.8.4-2ubuntu1~14.04) 4.8.4"
	.section	.note.GNU-stack,"",@progbits
